target datalayout = "e-m:e-p270:32:32-p271:32:32-p272:64:64-i64:64-i128:128-f80:128-n8:16:32:64-S128"
target triple = "x86_64-pc-linux-gnu"

%"class.nanobind::handle" = type { ptr }
%class.anon.62 = type { i64 }
%"struct.nanobind::detail::type_caster.60" = type { %"struct.nanobind::detail::type_caster_base.61" }
%"struct.nanobind::detail::type_caster_base.61" = type { ptr }
%class.anon.67 = type { i8 }
%struct.capture.66 = type { %class.anon.62 }
%"struct.nanobind::detail::tuple.69" = type { %"struct.nanobind::detail::type_caster.60" }

@_ZTIZL29nanobind_init_test_typing_extRN8nanobind7module_EE15CustomSignature = internal constant { ptr, ptr } { ptr getelementptr inbounds (ptr, ptr @_ZTVN10__cxxabiv117__class_type_infoE, i64 2), ptr @_ZTSZL29nanobind_init_test_typing_extRN8nanobind7module_EE15CustomSignature }, align 8

; Function Attrs: alwaysinline mustprogress nounwind optsize uwtable
define linkonce_odr hidden noundef ptr @_ZNK8nanobind6handle3ptrEv(ptr noundef nonnull align 8 dereferenceable(8) %0) #5 comdat align 2 {
  %2 = alloca ptr, align 8
  store ptr %0, ptr %2, align 8, !tbaa !12
  %3 = load ptr, ptr %2, align 8
  %4 = getelementptr inbounds nuw %"class.nanobind::handle", ptr %3, i32 0, i32 0
  %5 = load ptr, ptr %4, align 8, !tbaa !14
  ret ptr %5
}

; Function Attrs: alwaysinline mustprogress nounwind optsize uwtable
define linkonce_odr hidden ptr @_ZN8nanobind6detail11type_casterIiiE8from_cppEiNS_9rv_policyEPNS0_12cleanup_listE(i32 noundef %0, i32 noundef %1, ptr noundef %2) #5 comdat align 2 personality ptr @__gxx_personality_v0 {
  %4 = alloca %"class.nanobind::handle", align 8
  %5 = alloca i32, align 4
  %6 = alloca i32, align 4
  %7 = alloca ptr, align 8
  store i32 %0, ptr %5, align 4, !tbaa !22
  store i32 %1, ptr %6, align 4, !tbaa !163
  store ptr %2, ptr %7, align 8, !tbaa !165
  %8 = load i32, ptr %5, align 4, !tbaa !22
  %9 = sext i32 %8 to i64
  %10 = invoke ptr @PyLong_FromLong(i64 noundef %9) #13
          to label %11 unwind label %15

11:                                               ; preds = %3
  invoke void @_ZN8nanobind6handleC2EPK7_object(ptr noundef nonnull align 8 dereferenceable(8) %4, ptr noundef %10) #13
          to label %12 unwind label %15

12:                                               ; preds = %11
  %13 = getelementptr inbounds nuw %"class.nanobind::handle", ptr %4, i32 0, i32 0
  %14 = load ptr, ptr %13, align 8
  ret ptr %14

15:                                               ; preds = %11, %3
  %16 = landingpad { ptr, i32 }
          catch ptr null
  %17 = extractvalue { ptr, i32 } %16, 0
  call void @__clang_call_terminate(ptr %17) #16
  unreachable
}

; Function Attrs: inlinehint mustprogress nounwind optsize uwtable
define internal noundef nonnull align 4 dereferenceable(4) ptr @_ZZN8nanobind6class_IZL29nanobind_init_test_typing_extRNS_7module_EE15CustomSignatureJEE6def_rwIS3_iJNS_10for_getterINS_3sigEEENS_10for_setterIS7_EENS6_IPKcEENS9_ISC_EEEEERS4_SC_MT_T0_DpRKT1_ENKUlRKS3_E_clESO_(ptr noundef nonnull align 8 dereferenceable(8) %0, ptr noundef nonnull align 4 dereferenceable(4) %1) #11 align 2 {
  %3 = alloca ptr, align 8
  %4 = alloca ptr, align 8
  store ptr %0, ptr %3, align 8, !tbaa !30
  store ptr %1, ptr %4, align 8, !tbaa !231
  %5 = load ptr, ptr %3, align 8
  %6 = load ptr, ptr %4, align 8, !tbaa !231
  %7 = getelementptr inbounds nuw %class.anon.62, ptr %5, i32 0, i32 0
  %8 = load i64, ptr %7, align 8, !tbaa !85
  %9 = getelementptr inbounds i8, ptr %6, i64 %8
  ret ptr %9
}

; Function Attrs: mustprogress optsize uwtable
define internal noundef nonnull align 4 dereferenceable(4) ptr @_ZN8nanobind6detail16type_caster_baseIZL29nanobind_init_test_typing_extRNS_7module_EE15CustomSignatureEcvRS4_Ev(ptr noundef nonnull align 8 dereferenceable(8) %0) #0 align 2 {
  %2 = alloca ptr, align 8
  store ptr %0, ptr %2, align 8, !tbaa !225
  %3 = load ptr, ptr %2, align 8
  %4 = getelementptr inbounds nuw %"struct.nanobind::detail::type_caster_base.61", ptr %3, i32 0, i32 0
  %5 = load ptr, ptr %4, align 8, !tbaa !233
  call void @_ZN8nanobind6detail27raise_next_overload_if_nullEPv(ptr noundef %5) #13
  %6 = getelementptr inbounds nuw %"struct.nanobind::detail::type_caster_base.61", ptr %3, i32 0, i32 0
  %7 = load ptr, ptr %6, align 8, !tbaa !233
  ret ptr %7
}

; Function Attrs: alwaysinline mustprogress nounwind optsize uwtable
define internal noundef zeroext i1 @_ZN8nanobind6detail16type_caster_baseIZL29nanobind_init_test_typing_extRNS_7module_EE15CustomSignatureE11from_pythonENS_6handleEhPNS0_12cleanup_listE(ptr noundef nonnull align 8 dereferenceable(8) %0, ptr %1, i8 noundef zeroext %2, ptr noundef %3) #5 align 2 {
  %5 = alloca %"class.nanobind::handle", align 8
  %6 = alloca ptr, align 8
  %7 = alloca i8, align 1
  %8 = alloca ptr, align 8
  %9 = getelementptr inbounds nuw %"class.nanobind::handle", ptr %5, i32 0, i32 0
  store ptr %1, ptr %9, align 8
  store ptr %0, ptr %6, align 8, !tbaa !225
  store i8 %2, ptr %7, align 1, !tbaa !76
  store ptr %3, ptr %8, align 8, !tbaa !165
  %10 = load ptr, ptr %6, align 8
  %11 = call noundef ptr @_ZNK8nanobind6handle3ptrEv(ptr noundef nonnull align 8 dereferenceable(8) %5) #13
  %12 = load i8, ptr %7, align 1, !tbaa !76
  %13 = load ptr, ptr %8, align 8, !tbaa !165
  %14 = getelementptr inbounds nuw %"struct.nanobind::detail::type_caster_base.61", ptr %10, i32 0, i32 0
  %15 = call noundef zeroext i1 @_ZN8nanobind6detail11nb_type_getEPKSt9type_infoP7_objecthPNS0_12cleanup_listEPPv(ptr noundef @_ZTIZL29nanobind_init_test_typing_extRN8nanobind7module_EE15CustomSignature, ptr noundef %11, i8 noundef zeroext %12, ptr noundef %13, ptr noundef %14) #15
  ret i1 %15
}

; Function Attrs: alwaysinline mustprogress nounwind optsize uwtable
define linkonce_odr hidden void @_ZN8nanobind6handleC2EPK7_object(ptr noundef nonnull align 8 dereferenceable(8) %0, ptr noundef %1) unnamed_addr #5 comdat align 2 {
  %3 = alloca ptr, align 8
  %4 = alloca ptr, align 8
  store ptr %0, ptr %3, align 8, !tbaa !12
  store ptr %1, ptr %4, align 8, !tbaa !3
  %5 = load ptr, ptr %3, align 8
  %6 = getelementptr inbounds nuw %"class.nanobind::handle", ptr %5, i32 0, i32 0
  %7 = load ptr, ptr %4, align 8, !tbaa !3
  store ptr %7, ptr %6, align 8, !tbaa !14
  ret void
}

; Function Attrs: alwaysinline mustprogress nounwind optsize uwtable
define internal noundef nonnull align 8 dereferenceable(8) ptr @_ZN8nanobind6detail5tupleIJNS0_11type_casterIZL29nanobind_init_test_typing_extRNS_7module_EE15CustomSignatureiEEEE3getILm0EEERDav(ptr noundef nonnull align 8 dereferenceable(8) %0) #5 align 2 {
  %2 = alloca ptr, align 8
  store ptr %0, ptr %2, align 8, !tbaa !256
  %3 = load ptr, ptr %2, align 8
  %4 = getelementptr inbounds nuw %"struct.nanobind::detail::tuple.69", ptr %3, i32 0, i32 0
  ret ptr %4
}

; Function Attrs: alwaysinline mustprogress optsize uwtable
define internal noundef ptr @_ZZN8nanobind6detail11func_createILb1ELb1EZNS_6class_IZL29nanobind_init_test_typing_extRNS_7module_EE15CustomSignatureJEE6def_rwIS5_iJNS_10for_getterINS_3sigEEENS_10for_setterIS9_EENS8_IPKcEENSB_ISE_EEEEERS6_SE_MT_T0_DpRKT1_EUlRKS5_E_RKiJSQ_EJLm0EEJNS_9is_methodENS_9is_getterENS_9rv_policyES9_DnSE_DnEEEP7_objectOT1_PFT2_DpT3_ESt16integer_sequenceImJXspT4_EEEDpRKT5_ENKUlPvPSY_PhSW_PNS0_12cleanup_listEE_clES1C_S1D_S1E_SW_S1G_(ptr noundef nonnull align 1 dereferenceable(1) %0, ptr noundef %1, ptr noundef %2, ptr noundef %3, i32 noundef %4, ptr noundef %5) #3 align 2 {
  %7 = alloca ptr, align 8
  %8 = alloca ptr, align 8
  %9 = alloca ptr, align 8
  %10 = alloca ptr, align 8
  %11 = alloca ptr, align 8
  %12 = alloca i32, align 4
  %13 = alloca ptr, align 8
  %14 = alloca ptr, align 8
  %15 = alloca %"struct.nanobind::detail::tuple.69", align 8
  %16 = alloca %"class.nanobind::handle", align 8
  %17 = alloca i32, align 4
  %18 = alloca ptr, align 8
  %19 = alloca %"class.nanobind::handle", align 8
  store ptr %0, ptr %8, align 8, !tbaa !30
  store ptr %1, ptr %9, align 8, !tbaa !30
  store ptr %2, ptr %10, align 8, !tbaa !161
  store ptr %3, ptr %11, align 8, !tbaa !20
  store i32 %4, ptr %12, align 4, !tbaa !163
  store ptr %5, ptr %13, align 8, !tbaa !165
  call void @llvm.lifetime.start.p0(i64 8, ptr %14) #14
  %20 = load ptr, ptr %9, align 8, !tbaa !30
  store ptr %20, ptr %14, align 8, !tbaa !250
  call void @llvm.lifetime.start.p0(i64 8, ptr %15) #14
  %21 = call noundef nonnull align 8 dereferenceable(8) ptr @_ZN8nanobind6detail5tupleIJNS0_11type_casterIZL29nanobind_init_test_typing_extRNS_7module_EE15CustomSignatureiEEEE3getILm0EEERDav(ptr noundef nonnull align 8 dereferenceable(8) %15) #13
  %22 = load ptr, ptr %10, align 8, !tbaa !161
  %23 = getelementptr inbounds nuw ptr, ptr %22, i64 0
  %24 = load ptr, ptr %23, align 8, !tbaa !3
  call void @_ZN8nanobind6handleC2EPK7_object(ptr noundef nonnull align 8 dereferenceable(8) %16, ptr noundef %24) #13
  %25 = load ptr, ptr %11, align 8, !tbaa !20
  %26 = getelementptr inbounds nuw i8, ptr %25, i64 0
  %27 = load i8, ptr %26, align 1, !tbaa !76
  %28 = load ptr, ptr %13, align 8, !tbaa !165
  %29 = getelementptr inbounds nuw %"class.nanobind::handle", ptr %16, i32 0, i32 0
  %30 = load ptr, ptr %29, align 8
  %31 = call noundef zeroext i1 @_ZN8nanobind6detail16type_caster_baseIZL29nanobind_init_test_typing_extRNS_7module_EE15CustomSignatureE11from_pythonENS_6handleEhPNS0_12cleanup_listE(ptr noundef nonnull align 8 dereferenceable(8) %21, ptr %30, i8 noundef zeroext %27, ptr noundef %28) #15
  br i1 %31, label %33, label %32

32:                                               ; preds = %6
  store ptr inttoptr (i64 1 to ptr), ptr %7, align 8
  store i32 1, ptr %17, align 4
  br label %46

33:                                               ; preds = %6
  call void @llvm.lifetime.start.p0(i64 8, ptr %18) #14
  call void @llvm.lifetime.start.p0(i64 8, ptr %19) #14
  %34 = load ptr, ptr %14, align 8, !tbaa !250
  %35 = getelementptr inbounds nuw %struct.capture.66, ptr %34, i32 0, i32 0
  %36 = call noundef nonnull align 8 dereferenceable(8) ptr @_ZN8nanobind6detail5tupleIJNS0_11type_casterIZL29nanobind_init_test_typing_extRNS_7module_EE15CustomSignatureiEEEE3getILm0EEERDav(ptr noundef nonnull align 8 dereferenceable(8) %15) #13
  %37 = call noundef nonnull align 4 dereferenceable(4) ptr @_ZN8nanobind6detail16type_caster_baseIZL29nanobind_init_test_typing_extRNS_7module_EE15CustomSignatureEcvRS4_Ev(ptr noundef nonnull align 8 dereferenceable(8) %36) #13
  %38 = call noundef nonnull align 4 dereferenceable(4) ptr @_ZZN8nanobind6class_IZL29nanobind_init_test_typing_extRNS_7module_EE15CustomSignatureJEE6def_rwIS3_iJNS_10for_getterINS_3sigEEENS_10for_setterIS7_EENS6_IPKcEENS9_ISC_EEEEERS4_SC_MT_T0_DpRKT1_ENKUlRKS3_E_clESO_(ptr noundef nonnull align 8 dereferenceable(8) %35, ptr noundef nonnull align 4 dereferenceable(4) %37) #13
  %39 = load i32, ptr %38, align 4, !tbaa !22
  %40 = load i32, ptr %12, align 4, !tbaa !163
  %41 = load ptr, ptr %13, align 8, !tbaa !165
  %42 = call ptr @_ZN8nanobind6detail11type_casterIiiE8from_cppEiNS_9rv_policyEPNS0_12cleanup_listE(i32 noundef %39, i32 noundef %40, ptr noundef %41) #15
  %43 = getelementptr inbounds nuw %"class.nanobind::handle", ptr %19, i32 0, i32 0
  store ptr %42, ptr %43, align 8
  %44 = call noundef ptr @_ZNK8nanobind6handle3ptrEv(ptr noundef nonnull align 8 dereferenceable(8) %19) #13
  store ptr %44, ptr %18, align 8, !tbaa !3
  call void @llvm.lifetime.end.p0(i64 8, ptr %19) #14
  %45 = load ptr, ptr %18, align 8, !tbaa !3
  store ptr %45, ptr %7, align 8
  store i32 1, ptr %17, align 4
  call void @llvm.lifetime.end.p0(i64 8, ptr %18) #14
  br label %46

46:                                               ; preds = %33, %32
  call void @llvm.lifetime.end.p0(i64 8, ptr %15) #14
  call void @llvm.lifetime.end.p0(i64 8, ptr %14) #14
  %47 = load ptr, ptr %7, align 8
  ret ptr %47
}

; Function Attrs: inlinehint mustprogress optsize uwtable
define internal noundef ptr @_ZZN8nanobind6detail11func_createILb1ELb1EZNS_6class_IZL29nanobind_init_test_typing_extRNS_7module_EE15CustomSignatureJEE6def_rwIS5_iJNS_10for_getterINS_3sigEEENS_10for_setterIS9_EENS8_IPKcEENSB_ISE_EEEEERS6_SE_MT_T0_DpRKT1_EUlRKS5_E_RKiJSQ_EJLm0EEJNS_9is_methodENS_9is_getterENS_9rv_policyES9_DnSE_DnEEEP7_objectOT1_PFT2_DpT3_ESt16integer_sequenceImJXspT4_EEEDpRKT5_ENUlPvPSY_PhSW_PNS0_12cleanup_listEE_8__invokeES1C_S1D_S1E_SW_S1G_(ptr noundef %0, ptr noundef %1, ptr noundef %2, i32 noundef %3, ptr noundef %4) #9 align 2 {
  %6 = alloca ptr, align 8
  %7 = alloca ptr, align 8
  %8 = alloca ptr, align 8
  %9 = alloca i32, align 4
  %10 = alloca ptr, align 8
  %11 = alloca %class.anon.67, align 1
  store ptr %0, ptr %6, align 8, !tbaa !30
  store ptr %1, ptr %7, align 8, !tbaa !161
  store ptr %2, ptr %8, align 8, !tbaa !20
  store i32 %3, ptr %9, align 4, !tbaa !163
  store ptr %4, ptr %10, align 8, !tbaa !165
  %12 = load ptr, ptr %6, align 8, !tbaa !30
  %13 = load ptr, ptr %7, align 8, !tbaa !161
  %14 = load ptr, ptr %8, align 8, !tbaa !20
  %15 = load i32, ptr %9, align 4, !tbaa !163
  %16 = load ptr, ptr %10, align 8, !tbaa !165
  %17 = call noundef ptr @_ZZN8nanobind6detail11func_createILb1ELb1EZNS_6class_IZL29nanobind_init_test_typing_extRNS_7module_EE15CustomSignatureJEE6def_rwIS5_iJNS_10for_getterINS_3sigEEENS_10for_setterIS9_EENS8_IPKcEENSB_ISE_EEEEERS6_SE_MT_T0_DpRKT1_EUlRKS5_E_RKiJSQ_EJLm0EEJNS_9is_methodENS_9is_getterENS_9rv_policyES9_DnSE_DnEEEP7_objectOT1_PFT2_DpT3_ESt16integer_sequenceImJXspT4_EEEDpRKT5_ENKUlPvPSY_PhSW_PNS0_12cleanup_listEE_clES1C_S1D_S1E_SW_S1G_(ptr noundef nonnull align 1 dereferenceable(1) %11, ptr noundef %12, ptr noundef %13, ptr noundef %14, i32 noundef %15, ptr noundef %16) #13
  ret ptr %17
}